target datalayout = "e-m:e-p270:32:32-p271:32:32-p272:64:64-i64:64-i128:128-f80:128-n8:16:32:64-S128"
target triple = "x86_64-pc-linux-gnu"

@.str.12 = private unnamed_addr constant [10 x i8] c"UNLIMITED\00", align 1
@.str.15 = private unnamed_addr constant [8 x i8] c"INVALID\00", align 1
@.str.16 = private unnamed_addr constant [25 x i8] c"%ld-%2.2ld:%2.2ld:%2.2ld\00", align 1
@.str.17 = private unnamed_addr constant [21 x i8] c"%2.2ld:%2.2ld:%2.2ld\00", align 1

; Function Attrs: nounwind uwtable
define dso_local void @mins2time_str(i32 noundef %0, ptr noundef %1, i32 noundef %2) #0 {
  %4 = alloca i32, align 4
  %5 = alloca ptr, align 8
  %6 = alloca i32, align 4
  %7 = alloca i64, align 8
  %8 = alloca i64, align 8
  %9 = alloca i64, align 8
  %10 = alloca i64, align 8
  store i32 %0, ptr %4, align 4
  store ptr %1, ptr %5, align 8
  store i32 %2, ptr %6, align 4
  %11 = load i32, ptr %4, align 4
  %12 = icmp eq i32 %11, -1
  br i1 %12, label %13, label %18

13:                                               ; preds = %3
  %14 = load ptr, ptr %5, align 8
  %15 = load i32, ptr %6, align 4
  %16 = sext i32 %15 to i64
  %17 = call i32 (ptr, i64, ptr, ...) @snprintf(ptr noundef %14, i64 noundef %16, ptr noundef @.str.12) #7
  br label %67

18:                                               ; preds = %3
  call void @llvm.lifetime.start.p0(i64 8, ptr %7) #7
  call void @llvm.lifetime.start.p0(i64 8, ptr %8) #7
  call void @llvm.lifetime.start.p0(i64 8, ptr %9) #7
  call void @llvm.lifetime.start.p0(i64 8, ptr %10) #7
  store i64 0, ptr %10, align 8
  %19 = load i32, ptr %4, align 4
  %20 = urem i32 %19, 60
  %21 = zext i32 %20 to i64
  store i64 %21, ptr %9, align 8
  %22 = load i32, ptr %4, align 4
  %23 = udiv i32 %22, 60
  %24 = urem i32 %23, 24
  %25 = zext i32 %24 to i64
  store i64 %25, ptr %8, align 8
  %26 = load i32, ptr %4, align 4
  %27 = udiv i32 %26, 1440
  %28 = zext i32 %27 to i64
  store i64 %28, ptr %7, align 8
  %29 = load i64, ptr %7, align 8
  %30 = icmp slt i64 %29, 0
  br i1 %30, label %40, label %31

31:                                               ; preds = %18
  %32 = load i64, ptr %8, align 8
  %33 = icmp slt i64 %32, 0
  br i1 %33, label %40, label %34

34:                                               ; preds = %31
  %35 = load i64, ptr %9, align 8
  %36 = icmp slt i64 %35, 0
  br i1 %36, label %40, label %37

37:                                               ; preds = %34
  %38 = load i64, ptr %10, align 8
  %39 = icmp slt i64 %38, 0
  br i1 %39, label %40, label %45

40:                                               ; preds = %37, %34, %31, %18
  %41 = load ptr, ptr %5, align 8
  %42 = load i32, ptr %6, align 4
  %43 = sext i32 %42 to i64
  %44 = call i32 (ptr, i64, ptr, ...) @snprintf(ptr noundef %41, i64 noundef %43, ptr noundef @.str.15) #7
  br label %66

45:                                               ; preds = %37
  %46 = load i64, ptr %7, align 8
  %47 = icmp ne i64 %46, 0
  br i1 %47, label %48, label %57

48:                                               ; preds = %45
  %49 = load ptr, ptr %5, align 8
  %50 = load i32, ptr %6, align 4
  %51 = sext i32 %50 to i64
  %52 = load i64, ptr %7, align 8
  %53 = load i64, ptr %8, align 8
  %54 = load i64, ptr %9, align 8
  %55 = load i64, ptr %10, align 8
  %56 = call i32 (ptr, i64, ptr, ...) @snprintf(ptr noundef %49, i64 noundef %51, ptr noundef @.str.16, i64 noundef %52, i64 noundef %53, i64 noundef %54, i64 noundef %55) #7
  br label %65

57:                                               ; preds = %45
  %58 = load ptr, ptr %5, align 8
  %59 = load i32, ptr %6, align 4
  %60 = sext i32 %59 to i64
  %61 = load i64, ptr %8, align 8
  %62 = load i64, ptr %9, align 8
  %63 = load i64, ptr %10, align 8
  %64 = call i32 (ptr, i64, ptr, ...) @snprintf(ptr noundef %58, i64 noundef %60, ptr noundef @.str.17, i64 noundef %61, i64 noundef %62, i64 noundef %63) #7
  br label %65

65:                                               ; preds = %57, %48
  br label %66

66:                                               ; preds = %65, %40
  call void @llvm.lifetime.end.p0(i64 8, ptr %10) #7
  call void @llvm.lifetime.end.p0(i64 8, ptr %9) #7
  call void @llvm.lifetime.end.p0(i64 8, ptr %8) #7
  call void @llvm.lifetime.end.p0(i64 8, ptr %7) #7
  br label %67

67:                                               ; preds = %66, %13
  ret void
}