; Function Attrs: nofree nounwind uwtable
define dso_local void @mins2time_str(i32 noundef %0, ptr noundef writeonly captures(none) %1, i32 noundef %2) #1 {
  %4 = icmp eq i32 %0, -1
  br i1 %4, label %5, label %8

5:                                                ; preds = %3
  %6 = sext i32 %2 to i64
  %7 = tail call i32 (ptr, i64, ptr, ...) @snprintf(ptr noundef %1, i64 noundef %6, ptr noundef nonnull @.str.12) #13
  br label %22

8:                                                ; preds = %3
  %9 = urem i32 %0, 60
  %10 = zext nneg i32 %9 to i64
  %11 = udiv i32 %0, 60
  %12 = urem i32 %11, 24
  %13 = zext nneg i32 %12 to i64
  %.not = icmp ult i32 %0, 1440
  br i1 %.not, label %19, label %14

14:                                               ; preds = %8
  %15 = udiv i32 %0, 1440
  %16 = zext nneg i32 %15 to i64
  %17 = sext i32 %2 to i64
  %18 = tail call i32 (ptr, i64, ptr, ...) @snprintf(ptr noundef %1, i64 noundef %17, ptr noundef nonnull @.str.16, i64 noundef %16, i64 noundef %13, i64 noundef %10, i64 noundef 0) #13
  br label %22

19:                                               ; preds = %8
  %20 = sext i32 %2 to i64
  %21 = tail call i32 (ptr, i64, ptr, ...) @snprintf(ptr noundef %1, i64 noundef %20, ptr noundef nonnull @.str.17, i64 noundef %13, i64 noundef %10, i64 noundef 0) #13
  br label %22

22:                                               ; preds = %19, %14, %5
  ret void
}